; Function Attrs: mustprogress uwtable
define noundef range(i32 -1, 1) i32 @_ZN3zmq13socket_base_t7connectEPKc(ptr noundef nonnull align 8 dereferenceable(1825) %0, ptr noundef %1) local_unnamed_addr #0 align 2 personality ptr @__gxx_personality_v0 {
  %3 = alloca %"struct.zmq::scoped_optional_lock_t", align 8
  call void @llvm.lifetime.start.p0(i64 8, ptr nonnull %3) #36
  %4 = getelementptr inbounds nuw i8, ptr %0, i64 1760
  %5 = load i8, ptr %4, align 8, !tbaa !96, !range !97, !noundef !98
  %6 = trunc nuw i8 %5 to i1
  %7 = getelementptr inbounds nuw i8, ptr %0, i64 1480
  %8 = select i1 %6, ptr %7, ptr null
  store ptr %8, ptr %3, align 8, !tbaa !137
  br i1 %6, label %9, label %_ZN3zmq22scoped_optional_lock_tC2EPNS_7mutex_tE.exit

9:                                                ; preds = %2
  %10 = tail call i32 @pthread_mutex_lock(ptr noundef nonnull align 8 dereferenceable(44) %7) #36
  %.not.i.i = icmp eq i32 %10, 0
  br i1 %.not.i.i, label %_ZN3zmq22scoped_optional_lock_tC2EPNS_7mutex_tE.exit, label %11, !prof !116

11:                                               ; preds = %9
  %12 = tail call ptr @strerror(i32 noundef %10) #36
  %13 = load ptr, ptr @stderr, align 8, !tbaa !100
  %14 = tail call i32 (ptr, ptr, ...) @fprintf(ptr noundef %13, ptr noundef nonnull @.str.9, ptr noundef %12, ptr noundef nonnull @.str.23, i32 noundef 109) #42
  %15 = load ptr, ptr @stderr, align 8, !tbaa !100
  %16 = tail call i32 @fflush(ptr noundef %15)
  tail call void @_ZN3zmq9zmq_abortEPKc(ptr noundef %12)
  br label %_ZN3zmq22scoped_optional_lock_tC2EPNS_7mutex_tE.exit

_ZN3zmq22scoped_optional_lock_tC2EPNS_7mutex_tE.exit: ; preds = %2, %9, %11
  %17 = invoke noundef i32 @_ZN3zmq13socket_base_t16connect_internalEPKc(ptr noundef nonnull align 8 dereferenceable(1825) %0, ptr noundef %1)
          to label %18 unwind label %30

18:                                               ; preds = %_ZN3zmq22scoped_optional_lock_tC2EPNS_7mutex_tE.exit
  br i1 %6, label %19, label %_ZN3zmq22scoped_optional_lock_tD2Ev.exit

19:                                               ; preds = %18
  %20 = tail call i32 @pthread_mutex_unlock(ptr noundef nonnull align 8 dereferenceable(44) %7) #36
  %.not.i.i4 = icmp eq i32 %20, 0
  br i1 %.not.i.i4, label %_ZN3zmq22scoped_optional_lock_tD2Ev.exit, label %21, !prof !116

21:                                               ; preds = %19
  %22 = tail call ptr @strerror(i32 noundef %20) #36
  %23 = load ptr, ptr @stderr, align 8, !tbaa !100
  %24 = tail call i32 (ptr, ptr, ...) @fprintf(ptr noundef %23, ptr noundef nonnull @.str.9, ptr noundef %22, ptr noundef nonnull @.str.23, i32 noundef 125) #42
  %25 = load ptr, ptr @stderr, align 8, !tbaa !100
  %26 = tail call i32 @fflush(ptr noundef %25)
  invoke void @_ZN3zmq9zmq_abortEPKc(ptr noundef %22)
          to label %_ZN3zmq22scoped_optional_lock_tD2Ev.exit unwind label %27

27:                                               ; preds = %21
  %28 = landingpad { ptr, i32 }
          catch ptr null
  %29 = extractvalue { ptr, i32 } %28, 0
  tail call void @__clang_call_terminate(ptr %29) #43
  unreachable

_ZN3zmq22scoped_optional_lock_tD2Ev.exit:         ; preds = %18, %19, %21
  call void @llvm.lifetime.end.p0(i64 8, ptr nonnull %3) #36
  ret i32 %17

30:                                               ; preds = %_ZN3zmq22scoped_optional_lock_tC2EPNS_7mutex_tE.exit
  %31 = landingpad { ptr, i32 }
          cleanup
  call void @_ZN3zmq22scoped_optional_lock_tD2Ev(ptr noundef nonnull align 8 dereferenceable(8) %3) #36
  call void @llvm.lifetime.end.p0(i64 8, ptr nonnull %3) #36
  resume { ptr, i32 } %31
}